; Function Attrs: mustprogress uwtable
define dso_local noundef nonnull align 8 dereferenceable(348) ptr @_ZNK21cmLocalNinjaGenerator19GetCommonFileStreamEv(ptr nocapture noundef nonnull readonly align 8 dereferenceable(952) %0) local_unnamed_addr #3 align 2 {
  %2 = getelementptr inbounds i8, ptr %0, i64 136
  %3 = load ptr, ptr %2, align 8
  %4 = load ptr, ptr %3, align 8
  %5 = getelementptr inbounds i8, ptr %4, i64 576
  %6 = load ptr, ptr %5, align 8
  %7 = tail call noundef ptr %6(ptr noundef nonnull align 8 dereferenceable(2808) %3)
  ret ptr %7
}